(dp0
S'wow_ct'
p1
ccopy_reg
_reconstructor
p2
(c__main__
Concert
p3
c__builtin__
object
p4
Ntp5
Rp6
(dp7
S'videoUrl'
p8
S'lol_vid'
p9
sS'users'
p10
c__builtin__
set
p11
((lp12
S'omg_id'
p13
atp14
Rp15
sS'concertSize'
p16
I0
sS'concertTag'
p17
g1
sS'_vOffset'
p18
I0
sS'_updatedVOffsetTime'
p19
I1435705032966
sS'_videoState'
p20
I2
sS'ownerId'
p21
g13
sbs.